target datalayout = "e-m:e-p270:32:32-p271:32:32-p272:64:64-i64:64-i128:128-f80:128-n8:16:32:64-S128"
target triple = "x86_64-pc-linux-gnu"

%struct.re_registers = type { i32, i32, ptr, ptr, ptr }

; Function Attrs: nounwind uwtable
define internal void @history_root_free(ptr noundef %0) #0 {
  %2 = alloca ptr, align 8
  store ptr %0, ptr %2, align 8, !tbaa !21
  %3 = load ptr, ptr %2, align 8, !tbaa !21
  %4 = getelementptr inbounds nuw %struct.re_registers, ptr %3, i32 0, i32 4
  %5 = load ptr, ptr %4, align 8, !tbaa !23
  %6 = icmp eq ptr %5, null
  br i1 %6, label %7, label %8

7:                                                ; preds = %1
  br label %14

8:                                                ; preds = %1
  %9 = load ptr, ptr %2, align 8, !tbaa !21
  %10 = getelementptr inbounds nuw %struct.re_registers, ptr %9, i32 0, i32 4
  %11 = load ptr, ptr %10, align 8, !tbaa !23
  call void @history_tree_free(ptr noundef %11)
  %12 = load ptr, ptr %2, align 8, !tbaa !21
  %13 = getelementptr inbounds nuw %struct.re_registers, ptr %12, i32 0, i32 4
  store ptr null, ptr %13, align 8, !tbaa !23
  br label %14

14:                                               ; preds = %8, %7
  ret void
}

; Function Attrs: nounwind uwtable
define dso_local void @onig_region_copy(ptr noundef %0, ptr noundef %1) #0 {
  %3 = alloca ptr, align 8
  %4 = alloca ptr, align 8
  %5 = alloca i32, align 4
  %6 = alloca i32, align 4
  store ptr %0, ptr %3, align 8, !tbaa !21
  store ptr %1, ptr %4, align 8, !tbaa !21
  call void @llvm.lifetime.start.p0(i64 4, ptr %5) #9
  %7 = load ptr, ptr %3, align 8, !tbaa !21
  %8 = load ptr, ptr %4, align 8, !tbaa !21
  %9 = icmp eq ptr %7, %8
  br i1 %9, label %10, label %11

10:                                               ; preds = %2
  store i32 1, ptr %6, align 4
  br label %161

11:                                               ; preds = %2
  %12 = load ptr, ptr %3, align 8, !tbaa !21
  %13 = getelementptr inbounds nuw %struct.re_registers, ptr %12, i32 0, i32 0
  %14 = load i32, ptr %13, align 8, !tbaa !32
  %15 = icmp eq i32 %14, 0
  br i1 %15, label %16, label %56

16:                                               ; preds = %11
  %17 = load ptr, ptr %4, align 8, !tbaa !21
  %18 = getelementptr inbounds nuw %struct.re_registers, ptr %17, i32 0, i32 1
  %19 = load i32, ptr %18, align 4, !tbaa !27
  %20 = icmp sgt i32 %19, 0
  br i1 %20, label %21, label %55

21:                                               ; preds = %16
  %22 = load ptr, ptr %4, align 8, !tbaa !21
  %23 = getelementptr inbounds nuw %struct.re_registers, ptr %22, i32 0, i32 1
  %24 = load i32, ptr %23, align 4, !tbaa !27
  %25 = sext i32 %24 to i64
  %26 = mul i64 4, %25
  %27 = call noalias ptr @malloc(i64 noundef %26) #10
  %28 = load ptr, ptr %3, align 8, !tbaa !21
  %29 = getelementptr inbounds nuw %struct.re_registers, ptr %28, i32 0, i32 2
  store ptr %27, ptr %29, align 8, !tbaa !29
  %30 = load ptr, ptr %3, align 8, !tbaa !21
  %31 = getelementptr inbounds nuw %struct.re_registers, ptr %30, i32 0, i32 2
  %32 = load ptr, ptr %31, align 8, !tbaa !29
  %33 = icmp eq ptr %32, null
  br i1 %33, label %34, label %35

34:                                               ; preds = %21
  store i32 1, ptr %6, align 4
  br label %161

35:                                               ; preds = %21
  %36 = load ptr, ptr %4, align 8, !tbaa !21
  %37 = getelementptr inbounds nuw %struct.re_registers, ptr %36, i32 0, i32 1
  %38 = load i32, ptr %37, align 4, !tbaa !27
  %39 = sext i32 %38 to i64
  %40 = mul i64 4, %39
  %41 = call noalias ptr @malloc(i64 noundef %40) #10
  %42 = load ptr, ptr %3, align 8, !tbaa !21
  %43 = getelementptr inbounds nuw %struct.re_registers, ptr %42, i32 0, i32 3
  store ptr %41, ptr %43, align 8, !tbaa !28
  %44 = load ptr, ptr %3, align 8, !tbaa !21
  %45 = getelementptr inbounds nuw %struct.re_registers, ptr %44, i32 0, i32 3
  %46 = load ptr, ptr %45, align 8, !tbaa !28
  %47 = icmp eq ptr %46, null
  br i1 %47, label %48, label %49

48:                                               ; preds = %35
  store i32 1, ptr %6, align 4
  br label %161

49:                                               ; preds = %35
  %50 = load ptr, ptr %4, align 8, !tbaa !21
  %51 = getelementptr inbounds nuw %struct.re_registers, ptr %50, i32 0, i32 1
  %52 = load i32, ptr %51, align 4, !tbaa !27
  %53 = load ptr, ptr %3, align 8, !tbaa !21
  %54 = getelementptr inbounds nuw %struct.re_registers, ptr %53, i32 0, i32 0
  store i32 %52, ptr %54, align 8, !tbaa !32
  br label %55

55:                                               ; preds = %49, %16
  br label %105

56:                                               ; preds = %11
  %57 = load ptr, ptr %3, align 8, !tbaa !21
  %58 = getelementptr inbounds nuw %struct.re_registers, ptr %57, i32 0, i32 0
  %59 = load i32, ptr %58, align 8, !tbaa !32
  %60 = load ptr, ptr %4, align 8, !tbaa !21
  %61 = getelementptr inbounds nuw %struct.re_registers, ptr %60, i32 0, i32 1
  %62 = load i32, ptr %61, align 4, !tbaa !27
  %63 = icmp slt i32 %59, %62
  br i1 %63, label %64, label %104

64:                                               ; preds = %56
  %65 = load ptr, ptr %3, align 8, !tbaa !21
  %66 = getelementptr inbounds nuw %struct.re_registers, ptr %65, i32 0, i32 2
  %67 = load ptr, ptr %66, align 8, !tbaa !29
  %68 = load ptr, ptr %4, align 8, !tbaa !21
  %69 = getelementptr inbounds nuw %struct.re_registers, ptr %68, i32 0, i32 1
  %70 = load i32, ptr %69, align 4, !tbaa !27
  %71 = sext i32 %70 to i64
  %72 = mul i64 4, %71
  %73 = call ptr @realloc(ptr noundef %67, i64 noundef %72) #11
  %74 = load ptr, ptr %3, align 8, !tbaa !21
  %75 = getelementptr inbounds nuw %struct.re_registers, ptr %74, i32 0, i32 2
  store ptr %73, ptr %75, align 8, !tbaa !29
  %76 = load ptr, ptr %3, align 8, !tbaa !21
  %77 = getelementptr inbounds nuw %struct.re_registers, ptr %76, i32 0, i32 2
  %78 = load ptr, ptr %77, align 8, !tbaa !29
  %79 = icmp eq ptr %78, null
  br i1 %79, label %80, label %81

80:                                               ; preds = %64
  store i32 1, ptr %6, align 4
  br label %161

81:                                               ; preds = %64
  %82 = load ptr, ptr %3, align 8, !tbaa !21
  %83 = getelementptr inbounds nuw %struct.re_registers, ptr %82, i32 0, i32 3
  %84 = load ptr, ptr %83, align 8, !tbaa !28
  %85 = load ptr, ptr %4, align 8, !tbaa !21
  %86 = getelementptr inbounds nuw %struct.re_registers, ptr %85, i32 0, i32 1
  %87 = load i32, ptr %86, align 4, !tbaa !27
  %88 = sext i32 %87 to i64
  %89 = mul i64 4, %88
  %90 = call ptr @realloc(ptr noundef %84, i64 noundef %89) #11
  %91 = load ptr, ptr %3, align 8, !tbaa !21
  %92 = getelementptr inbounds nuw %struct.re_registers, ptr %91, i32 0, i32 3
  store ptr %90, ptr %92, align 8, !tbaa !28
  %93 = load ptr, ptr %3, align 8, !tbaa !21
  %94 = getelementptr inbounds nuw %struct.re_registers, ptr %93, i32 0, i32 3
  %95 = load ptr, ptr %94, align 8, !tbaa !28
  %96 = icmp eq ptr %95, null
  br i1 %96, label %97, label %98

97:                                               ; preds = %81
  store i32 1, ptr %6, align 4
  br label %161

98:                                               ; preds = %81
  %99 = load ptr, ptr %4, align 8, !tbaa !21
  %100 = getelementptr inbounds nuw %struct.re_registers, ptr %99, i32 0, i32 1
  %101 = load i32, ptr %100, align 4, !tbaa !27
  %102 = load ptr, ptr %3, align 8, !tbaa !21
  %103 = getelementptr inbounds nuw %struct.re_registers, ptr %102, i32 0, i32 0
  store i32 %101, ptr %103, align 8, !tbaa !32
  br label %104

104:                                              ; preds = %98, %56
  br label %105

105:                                              ; preds = %104, %55
  store i32 0, ptr %5, align 4, !tbaa !9
  br label %106

106:                                              ; preds = %139, %105
  %107 = load i32, ptr %5, align 4, !tbaa !9
  %108 = load ptr, ptr %4, align 8, !tbaa !21
  %109 = getelementptr inbounds nuw %struct.re_registers, ptr %108, i32 0, i32 1
  %110 = load i32, ptr %109, align 4, !tbaa !27
  %111 = icmp slt i32 %107, %110
  br i1 %111, label %112, label %142

112:                                              ; preds = %106
  %113 = load ptr, ptr %4, align 8, !tbaa !21
  %114 = getelementptr inbounds nuw %struct.re_registers, ptr %113, i32 0, i32 2
  %115 = load ptr, ptr %114, align 8, !tbaa !29
  %116 = load i32, ptr %5, align 4, !tbaa !9
  %117 = sext i32 %116 to i64
  %118 = getelementptr inbounds i32, ptr %115, i64 %117
  %119 = load i32, ptr %118, align 4, !tbaa !9
  %120 = load ptr, ptr %3, align 8, !tbaa !21
  %121 = getelementptr inbounds nuw %struct.re_registers, ptr %120, i32 0, i32 2
  %122 = load ptr, ptr %121, align 8, !tbaa !29
  %123 = load i32, ptr %5, align 4, !tbaa !9
  %124 = sext i32 %123 to i64
  %125 = getelementptr inbounds i32, ptr %122, i64 %124
  store i32 %119, ptr %125, align 4, !tbaa !9
  %126 = load ptr, ptr %4, align 8, !tbaa !21
  %127 = getelementptr inbounds nuw %struct.re_registers, ptr %126, i32 0, i32 3
  %128 = load ptr, ptr %127, align 8, !tbaa !28
  %129 = load i32, ptr %5, align 4, !tbaa !9
  %130 = sext i32 %129 to i64
  %131 = getelementptr inbounds i32, ptr %128, i64 %130
  %132 = load i32, ptr %131, align 4, !tbaa !9
  %133 = load ptr, ptr %3, align 8, !tbaa !21
  %134 = getelementptr inbounds nuw %struct.re_registers, ptr %133, i32 0, i32 3
  %135 = load ptr, ptr %134, align 8, !tbaa !28
  %136 = load i32, ptr %5, align 4, !tbaa !9
  %137 = sext i32 %136 to i64
  %138 = getelementptr inbounds i32, ptr %135, i64 %137
  store i32 %132, ptr %138, align 4, !tbaa !9
  br label %139

139:                                              ; preds = %112
  %140 = load i32, ptr %5, align 4, !tbaa !9
  %141 = add nsw i32 %140, 1
  store i32 %141, ptr %5, align 4, !tbaa !9
  br label %106, !llvm.loop !33

142:                                              ; preds = %106
  %143 = load ptr, ptr %4, align 8, !tbaa !21
  %144 = getelementptr inbounds nuw %struct.re_registers, ptr %143, i32 0, i32 1
  %145 = load i32, ptr %144, align 4, !tbaa !27
  %146 = load ptr, ptr %3, align 8, !tbaa !21
  %147 = getelementptr inbounds nuw %struct.re_registers, ptr %146, i32 0, i32 1
  store i32 %145, ptr %147, align 4, !tbaa !27
  %148 = load ptr, ptr %3, align 8, !tbaa !21
  call void @history_root_free(ptr noundef %148)
  %149 = load ptr, ptr %4, align 8, !tbaa !21
  %150 = getelementptr inbounds nuw %struct.re_registers, ptr %149, i32 0, i32 4
  %151 = load ptr, ptr %150, align 8, !tbaa !23
  %152 = icmp ne ptr %151, null
  br i1 %152, label %153, label %160

153:                                              ; preds = %142
  %154 = load ptr, ptr %4, align 8, !tbaa !21
  %155 = getelementptr inbounds nuw %struct.re_registers, ptr %154, i32 0, i32 4
  %156 = load ptr, ptr %155, align 8, !tbaa !23
  %157 = call ptr @history_tree_clone(ptr noundef %156)
  %158 = load ptr, ptr %3, align 8, !tbaa !21
  %159 = getelementptr inbounds nuw %struct.re_registers, ptr %158, i32 0, i32 4
  store ptr %157, ptr %159, align 8, !tbaa !23
  br label %160

160:                                              ; preds = %153, %142
  store i32 0, ptr %6, align 4
  br label %161

161:                                              ; preds = %160, %97, %80, %48, %34, %10
  call void @llvm.lifetime.end.p0(i64 4, ptr %5) #9
  %162 = load i32, ptr %6, align 4
  switch i32 %162, label %164 [
    i32 0, label %163
    i32 1, label %163
  ]

163:                                              ; preds = %161, %161
  ret void

164:                                              ; preds = %161
  unreachable
}