; Function Attrs: nounwind uwtable
define dso_local void @onig_region_copy(ptr noundef captures(address) %0, ptr noundef readonly captures(address) %1) local_unnamed_addr #4 {
  %3 = icmp eq ptr %0, %1
  br i1 %3, label %71, label %4

4:                                                ; preds = %2
  %5 = load i32, ptr %0, align 8, !tbaa !27
  %6 = icmp eq i32 %5, 0
  %7 = getelementptr inbounds nuw i8, ptr %1, i64 4
  %8 = load i32, ptr %7, align 4, !tbaa !21
  br i1 %6, label %9, label %21

9:                                                ; preds = %4
  %10 = icmp sgt i32 %8, 0
  br i1 %10, label %11, label %._crit_edge

11:                                               ; preds = %9
  %12 = zext nneg i32 %8 to i64
  %13 = shl nuw nsw i64 %12, 2
  %14 = tail call noalias ptr @malloc(i64 noundef %13) #28
  %15 = getelementptr inbounds nuw i8, ptr %0, i64 8
  store ptr %14, ptr %15, align 8, !tbaa !23
  %16 = icmp eq ptr %14, null
  br i1 %16, label %71, label %17

17:                                               ; preds = %11
  %18 = tail call noalias ptr @malloc(i64 noundef %13) #28
  %19 = getelementptr inbounds nuw i8, ptr %0, i64 16
  store ptr %18, ptr %19, align 8, !tbaa !22
  %20 = icmp eq ptr %18, null
  br i1 %20, label %71, label %.thread

.thread:                                          ; preds = %17
  store i32 %8, ptr %0, align 8, !tbaa !27
  br label %.lr.ph

21:                                               ; preds = %4
  %22 = icmp slt i32 %5, %8
  br i1 %22, label %23, label %40

23:                                               ; preds = %21
  %24 = getelementptr inbounds nuw i8, ptr %0, i64 8
  %25 = load ptr, ptr %24, align 8, !tbaa !23
  %26 = sext i32 %8 to i64
  %27 = shl nsw i64 %26, 2
  %28 = tail call ptr @realloc(ptr noundef %25, i64 noundef %27) #29
  store ptr %28, ptr %24, align 8, !tbaa !23
  %29 = icmp eq ptr %28, null
  br i1 %29, label %71, label %30

30:                                               ; preds = %23
  %31 = getelementptr inbounds nuw i8, ptr %0, i64 16
  %32 = load ptr, ptr %31, align 8, !tbaa !22
  %33 = load i32, ptr %7, align 4, !tbaa !21
  %34 = sext i32 %33 to i64
  %35 = shl nsw i64 %34, 2
  %36 = tail call ptr @realloc(ptr noundef %32, i64 noundef %35) #29
  store ptr %36, ptr %31, align 8, !tbaa !22
  %37 = icmp eq ptr %36, null
  br i1 %37, label %71, label %38

38:                                               ; preds = %30
  %39 = load i32, ptr %7, align 4, !tbaa !21
  store i32 %39, ptr %0, align 8, !tbaa !27
  br label %40

40:                                               ; preds = %21, %38
  %41 = phi i32 [ %8, %21 ], [ %39, %38 ]
  %42 = icmp sgt i32 %41, 0
  br i1 %42, label %.lr.ph, label %._crit_edge

.lr.ph:                                           ; preds = %.thread, %40
  %43 = getelementptr inbounds nuw i8, ptr %1, i64 4
  %44 = getelementptr inbounds nuw i8, ptr %1, i64 8
  %45 = load ptr, ptr %44, align 8, !tbaa !23
  %46 = getelementptr inbounds nuw i8, ptr %0, i64 8
  %47 = load ptr, ptr %46, align 8, !tbaa !23
  %48 = getelementptr inbounds nuw i8, ptr %1, i64 16
  %49 = load ptr, ptr %48, align 8, !tbaa !22
  %50 = getelementptr inbounds nuw i8, ptr %0, i64 16
  %51 = load ptr, ptr %50, align 8, !tbaa !22
  br label %52

52:                                               ; preds = %.lr.ph, %52
  %indvars.iv = phi i64 [ 0, %.lr.ph ], [ %indvars.iv.next, %52 ]
  %53 = getelementptr inbounds nuw i32, ptr %45, i64 %indvars.iv
  %54 = load i32, ptr %53, align 4, !tbaa !24
  %55 = getelementptr inbounds nuw i32, ptr %47, i64 %indvars.iv
  store i32 %54, ptr %55, align 4, !tbaa !24
  %56 = getelementptr inbounds nuw i32, ptr %49, i64 %indvars.iv
  %57 = load i32, ptr %56, align 4, !tbaa !24
  %58 = getelementptr inbounds nuw i32, ptr %51, i64 %indvars.iv
  store i32 %57, ptr %58, align 4, !tbaa !24
  %indvars.iv.next = add nuw nsw i64 %indvars.iv, 1
  %59 = load i32, ptr %43, align 4, !tbaa !21
  %60 = sext i32 %59 to i64
  %61 = icmp slt i64 %indvars.iv.next, %60
  br i1 %61, label %52, label %._crit_edge, !llvm.loop !28

._crit_edge:                                      ; preds = %52, %9, %40
  %.lcssa = phi i32 [ %41, %40 ], [ %8, %9 ], [ %59, %52 ]
  %62 = getelementptr inbounds nuw i8, ptr %0, i64 4
  store i32 %.lcssa, ptr %62, align 4, !tbaa !21
  %63 = getelementptr inbounds nuw i8, ptr %0, i64 24
  %64 = load ptr, ptr %63, align 8, !tbaa !16
  %65 = icmp eq ptr %64, null
  br i1 %65, label %history_root_free.exit, label %66

66:                                               ; preds = %._crit_edge
  tail call fastcc void @history_tree_free(ptr noundef %64)
  store ptr null, ptr %63, align 8, !tbaa !16
  br label %history_root_free.exit

history_root_free.exit:                           ; preds = %._crit_edge, %66
  %67 = getelementptr inbounds nuw i8, ptr %1, i64 24
  %68 = load ptr, ptr %67, align 8, !tbaa !16
  %.not = icmp eq ptr %68, null
  br i1 %.not, label %71, label %69

69:                                               ; preds = %history_root_free.exit
  %70 = tail call fastcc ptr @history_tree_clone(ptr noundef nonnull %68)
  store ptr %70, ptr %63, align 8, !tbaa !16
  br label %71

71:                                               ; preds = %history_root_free.exit, %69, %30, %23, %17, %11, %2
  ret void
}